; Function Attrs: mustprogress uwtable
define dso_local void @_ZN3net21QuicClientSessionBase14DeletePromisedEPNS_22QuicClientPromisedInfoE(ptr noundef nonnull align 8 dereferenceable(2140) %this, ptr noundef %promised) unnamed_addr #0 align 2 personality ptr @__gxx_personality_v0 {
entry:
  %ref.tmp = alloca %"class.std::__cxx11::basic_string", align 8
  %ref.tmp3 = alloca i32, align 4
  %push_promise_index_ = getelementptr inbounds i8, ptr %this, i64 2072
  %0 = load ptr, ptr %push_promise_index_, align 8
  %promised_by_url_.i = getelementptr inbounds i8, ptr %0, i64 8
  %url_.i = getelementptr inbounds i8, ptr %promised, i64 24
  call void @_ZNSt7__cxx1112basic_stringIcSt11char_traitsIcESaIcEEC1ERKS4_(ptr noundef nonnull align 8 dereferenceable(32) %ref.tmp, ptr noundef nonnull align 8 dereferenceable(32) %url_.i)
  %call.i.i2 = invoke noundef i64 @_ZNSt10_HashtableINSt7__cxx1112basic_stringIcSt11char_traitsIcESaIcEEESt4pairIKS5_PN3net22QuicClientPromisedInfoEESaISB_ENSt8__detail10_Select1stESt8equal_toIS5_ESt4hashIS5_ENSD_18_Mod_range_hashingENSD_20_Default_ranged_hashENSD_20_Prime_rehash_policyENSD_17_Hashtable_traitsILb1ELb0ELb1EEEE8_M_eraseESt17integral_constantIbLb1EERS7_(ptr noundef nonnull align 8 dereferenceable(56) %promised_by_url_.i, ptr noundef nonnull align 8 dereferenceable(32) %ref.tmp)
          to label %invoke.cont unwind label %lpad

invoke.cont:                                      ; preds = %entry
  call void @_ZNSt7__cxx1112basic_stringIcSt11char_traitsIcESaIcEED1Ev(ptr noundef nonnull align 8 dereferenceable(32) %ref.tmp) #16
  %promised_by_id_ = getelementptr inbounds i8, ptr %this, i64 2080
  %id_.i = getelementptr inbounds i8, ptr %promised, i64 16
  %1 = load i32, ptr %id_.i, align 8
  store i32 %1, ptr %ref.tmp3, align 4
  %call.i.i = call noundef i64 @_ZNSt10_HashtableIjSt4pairIKjSt10unique_ptrIN3net22QuicClientPromisedInfoESt14default_deleteIS4_EEESaIS8_ENSt8__detail10_Select1stESt8equal_toIjESt4hashIjENSA_18_Mod_range_hashingENSA_20_Default_ranged_hashENSA_20_Prime_rehash_policyENSA_17_Hashtable_traitsILb0ELb0ELb1EEEE8_M_eraseESt17integral_constantIbLb1EERS1_(ptr noundef nonnull align 8 dereferenceable(56) %promised_by_id_, ptr noundef nonnull align 4 dereferenceable(4) %ref.tmp3)
  ret void

lpad:                                             ; preds = %entry
  %2 = landingpad { ptr, i32 }
          cleanup
  call void @_ZNSt7__cxx1112basic_stringIcSt11char_traitsIcESaIcEED1Ev(ptr noundef nonnull align 8 dereferenceable(32) %ref.tmp) #16
  resume { ptr, i32 } %2
}